target datalayout = "e-m:e-p270:32:32-p271:32:32-p272:64:64-i64:64-i128:128-f80:128-n8:16:32:64-S128"
target triple = "x86_64-unknown-linux-gnu"

%"class.Assimp::BlenderTessellatorP2T" = type { ptr }
%class.aiVector3t = type { float, float, float }
%"struct.std::_Vector_base.12" = type { %"struct.std::_Vector_base<p2t::Triangle *, std::allocator<p2t::Triangle *>>::_Vector_impl" }
%"struct.std::_Vector_base<p2t::Triangle *, std::allocator<p2t::Triangle *>>::_Vector_impl" = type { %"struct.std::_Vector_base<p2t::Triangle *, std::allocator<p2t::Triangle *>>::_Vector_impl_data" }
%"struct.std::_Vector_base<p2t::Triangle *, std::allocator<p2t::Triangle *>>::_Vector_impl_data" = type { ptr, ptr, ptr }
%"struct.Assimp::Blender::PointP2T" = type { %class.aiVector3t, %"struct.p2t::Point", i32, i32 }
%"struct.p2t::Point" = type { double, double, %"class.std::vector.16" }
%"class.std::vector.16" = type { %"struct.std::_Vector_base.17" }
%"struct.std::_Vector_base.17" = type { %"struct.std::_Vector_base<p2t::Edge *, std::allocator<p2t::Edge *>>::_Vector_impl" }
%"struct.std::_Vector_base<p2t::Edge *, std::allocator<p2t::Edge *>>::_Vector_impl" = type { %"struct.std::_Vector_base<p2t::Edge *, std::allocator<p2t::Edge *>>::_Vector_impl_data" }
%"struct.std::_Vector_base<p2t::Edge *, std::allocator<p2t::Edge *>>::_Vector_impl_data" = type { ptr, ptr, ptr }
%"class.p2t::Triangle" = type <{ [3 x i8], [3 x i8], [2 x i8], [3 x ptr], [3 x ptr], i8, [7 x i8] }>

@.str = private unnamed_addr constant [17 x i8] c"BLEND_TESS_P2T: \00", align 1
@.str.2 = private unnamed_addr constant [118 x i8] c"Point returned by poly2tri was probably not one of ours. This indicates we need a new way to store vertex information\00", align 1
@_ZTI17DeadlyImportError = linkonce_odr constant { ptr, ptr, ptr } { ptr getelementptr inbounds (ptr, ptr @_ZTVN10__cxxabiv120__si_class_type_infoE, i64 2), ptr @_ZTS17DeadlyImportError, ptr @_ZTI15DeadlyErrorBase }, comdat, align 8

; Function Attrs: mustprogress nounwind uwtable
define hidden noundef ptr @_ZN6Assimp12LogFunctionsINS_21BlenderTessellatorP2TEE6PrefixEv() #0 align 2 {
entry:
  ret ptr @.str
}

; Function Attrs: mustprogress uwtable
define linkonce_odr hidden void @_ZN6Assimp12LogFunctionsINS_21BlenderTessellatorP2TEE14ThrowExceptionIJRA118_KcEEEvDpOT_(ptr noundef nonnull align 1 dereferenceable(118) %args) #2 comdat align 2 personality ptr @__gxx_personality_v0 {
entry:
  %args.addr = alloca ptr, align 8
  %ref.tmp = alloca ptr, align 8
  %exn.slot = alloca ptr, align 8
  %ehselector.slot = alloca i32, align 4
  store ptr %args, ptr %args.addr, align 8
  %exception = call ptr @__cxa_allocate_exception(i64 16) #14
  %call = call noundef ptr @_ZN6Assimp12LogFunctionsINS_21BlenderTessellatorP2TEE6PrefixEv()
  store ptr %call, ptr %ref.tmp, align 8
  %0 = load ptr, ptr %args.addr, align 8
  invoke void @_ZN17DeadlyImportErrorC2IJPKcRA118_S1_EEEDpOT_(ptr noundef nonnull align 8 dereferenceable(16) %exception, ptr noundef nonnull align 8 dereferenceable(8) %ref.tmp, ptr noundef nonnull align 1 dereferenceable(118) %0)
          to label %invoke.cont unwind label %lpad

invoke.cont:                                      ; preds = %entry
  call void @__cxa_throw(ptr %exception, ptr @_ZTI17DeadlyImportError, ptr @_ZN17DeadlyImportErrorD2Ev) #15
  unreachable

lpad:                                             ; preds = %entry
  %1 = landingpad { ptr, i32 }
          cleanup
  %2 = extractvalue { ptr, i32 } %1, 0
  store ptr %2, ptr %exn.slot, align 8
  %3 = extractvalue { ptr, i32 } %1, 1
  store i32 %3, ptr %ehselector.slot, align 4
  call void @__cxa_free_exception(ptr %exception) #14
  br label %eh.resume

eh.resume:                                        ; preds = %lpad
  %exn = load ptr, ptr %exn.slot, align 8
  %sel = load i32, ptr %ehselector.slot, align 4
  %lpad.val = insertvalue { ptr, i32 } poison, ptr %exn, 0
  %lpad.val1 = insertvalue { ptr, i32 } %lpad.val, i32 %sel, 1
  resume { ptr, i32 } %lpad.val1
}

; Function Attrs: mustprogress uwtable
define linkonce_odr hidden noundef nonnull align 8 dereferenceable(64) ptr @_ZNK6Assimp21BlenderTessellatorP2T23GetActualPointStructureERN3p2t5PointE(ptr noundef nonnull align 8 dereferenceable(8) %this, ptr noundef nonnull align 8 dereferenceable(40) %point) #2 comdat align 2 {
entry:
  %this.addr = alloca ptr, align 8
  %point.addr = alloca ptr, align 8
  %pointOffset = alloca i32, align 4
  %pointStruct = alloca ptr, align 8
  store ptr %this, ptr %this.addr, align 8
  store ptr %point, ptr %point.addr, align 8
  store i32 16, ptr %pointOffset, align 4
  %0 = load ptr, ptr %point.addr, align 8
  %1 = load i32, ptr %pointOffset, align 4
  %idx.ext = zext i32 %1 to i64
  %idx.neg = sub i64 0, %idx.ext
  %add.ptr = getelementptr inbounds i8, ptr %0, i64 %idx.neg
  store ptr %add.ptr, ptr %pointStruct, align 8
  %2 = load ptr, ptr %pointStruct, align 8
  %magic = getelementptr inbounds %"struct.Assimp::Blender::PointP2T", ptr %2, i32 0, i32 2
  %3 = load i32, ptr %magic, align 8
  %cmp = icmp ne i32 %3, -2081580349
  br i1 %cmp, label %if.then, label %if.end

if.then:                                          ; preds = %entry
  call void @_ZN6Assimp12LogFunctionsINS_21BlenderTessellatorP2TEE14ThrowExceptionIJRA118_KcEEEvDpOT_(ptr noundef nonnull align 1 dereferenceable(118) @.str.2)
  br label %if.end

if.end:                                           ; preds = %if.then, %entry
  %4 = load ptr, ptr %pointStruct, align 8
  ret ptr %4
}

; Function Attrs: mustprogress nounwind uwtable
define linkonce_odr hidden noundef ptr @_ZN3p2t8Triangle8GetPointEi(ptr noundef nonnull align 8 dereferenceable(57) %this, i32 noundef %index) #0 comdat align 2 {
entry:
  %this.addr = alloca ptr, align 8
  %index.addr = alloca i32, align 4
  store ptr %this, ptr %this.addr, align 8
  store i32 %index, ptr %index.addr, align 4
  %this1 = load ptr, ptr %this.addr, align 8
  %points_ = getelementptr inbounds %"class.p2t::Triangle", ptr %this1, i32 0, i32 3
  %0 = load i32, ptr %index.addr, align 4
  %idxprom = sext i32 %0 to i64
  %arrayidx = getelementptr inbounds [3 x ptr], ptr %points_, i64 0, i64 %idxprom
  %1 = load ptr, ptr %arrayidx, align 8
  ret ptr %1
}

; Function Attrs: mustprogress nounwind uwtable
define linkonce_odr hidden noundef nonnull align 8 dereferenceable(8) ptr @_ZNSt6vectorIPN3p2t8TriangleESaIS2_EEixEm(ptr noundef nonnull align 8 dereferenceable(24) %this, i64 noundef %__n) #0 comdat align 2 {
entry:
  %this.addr = alloca ptr, align 8
  %__n.addr = alloca i64, align 8
  store ptr %this, ptr %this.addr, align 8
  store i64 %__n, ptr %__n.addr, align 8
  %this1 = load ptr, ptr %this.addr, align 8
  %_M_impl = getelementptr inbounds %"struct.std::_Vector_base.12", ptr %this1, i32 0, i32 0
  %_M_start = getelementptr inbounds %"struct.std::_Vector_base<p2t::Triangle *, std::allocator<p2t::Triangle *>>::_Vector_impl_data", ptr %_M_impl, i32 0, i32 0
  %0 = load ptr, ptr %_M_start, align 8
  %1 = load i64, ptr %__n.addr, align 8
  %add.ptr = getelementptr inbounds ptr, ptr %0, i64 %1
  ret ptr %add.ptr
}

; Function Attrs: mustprogress nounwind uwtable
define linkonce_odr hidden noundef i64 @_ZNKSt6vectorIPN3p2t8TriangleESaIS2_EE4sizeEv(ptr noundef nonnull align 8 dereferenceable(24) %this) #0 comdat align 2 {
entry:
  %this.addr = alloca ptr, align 8
  store ptr %this, ptr %this.addr, align 8
  %this1 = load ptr, ptr %this.addr, align 8
  %_M_impl = getelementptr inbounds %"struct.std::_Vector_base.12", ptr %this1, i32 0, i32 0
  %_M_finish = getelementptr inbounds %"struct.std::_Vector_base<p2t::Triangle *, std::allocator<p2t::Triangle *>>::_Vector_impl_data", ptr %_M_impl, i32 0, i32 1
  %0 = load ptr, ptr %_M_finish, align 8
  %_M_impl2 = getelementptr inbounds %"struct.std::_Vector_base.12", ptr %this1, i32 0, i32 0
  %_M_start = getelementptr inbounds %"struct.std::_Vector_base<p2t::Triangle *, std::allocator<p2t::Triangle *>>::_Vector_impl_data", ptr %_M_impl2, i32 0, i32 0
  %1 = load ptr, ptr %_M_start, align 8
  %sub.ptr.lhs.cast = ptrtoint ptr %0 to i64
  %sub.ptr.rhs.cast = ptrtoint ptr %1 to i64
  %sub.ptr.sub = sub i64 %sub.ptr.lhs.cast, %sub.ptr.rhs.cast
  %sub.ptr.div = sdiv exact i64 %sub.ptr.sub, 8
  ret i64 %sub.ptr.div
}

; Function Attrs: mustprogress uwtable
define hidden void @_ZNK6Assimp21BlenderTessellatorP2T22MakeFacesFromTrianglesERSt6vectorIPN3p2t8TriangleESaIS4_EE(ptr noundef nonnull align 8 dereferenceable(8) %this, ptr noundef nonnull align 8 dereferenceable(24) %triangles) #2 align 2 {
entry:
  %this.addr = alloca ptr, align 8
  %triangles.addr = alloca ptr, align 8
  %i = alloca i64, align 8
  %Triangle = alloca ptr, align 8
  %pointA = alloca ptr, align 8
  %pointB = alloca ptr, align 8
  %pointC = alloca ptr, align 8
  store ptr %this, ptr %this.addr, align 8
  store ptr %triangles, ptr %triangles.addr, align 8
  %this1 = load ptr, ptr %this.addr, align 8
  store i64 0, ptr %i, align 8
  br label %for.cond

for.cond:                                         ; preds = %for.inc, %entry
  %0 = load i64, ptr %i, align 8
  %1 = load ptr, ptr %triangles.addr, align 8
  %call = call noundef i64 @_ZNKSt6vectorIPN3p2t8TriangleESaIS2_EE4sizeEv(ptr noundef nonnull align 8 dereferenceable(24) %1) #14
  %cmp = icmp ult i64 %0, %call
  br i1 %cmp, label %for.body, label %for.end

for.body:                                         ; preds = %for.cond
  %2 = load ptr, ptr %triangles.addr, align 8
  %3 = load i64, ptr %i, align 8
  %call2 = call noundef nonnull align 8 dereferenceable(8) ptr @_ZNSt6vectorIPN3p2t8TriangleESaIS2_EEixEm(ptr noundef nonnull align 8 dereferenceable(24) %2, i64 noundef %3) #14
  %4 = load ptr, ptr %call2, align 8
  store ptr %4, ptr %Triangle, align 8
  %5 = load ptr, ptr %Triangle, align 8
  %call3 = call noundef ptr @_ZN3p2t8Triangle8GetPointEi(ptr noundef nonnull align 8 dereferenceable(57) %5, i32 noundef 0)
  %call4 = call noundef nonnull align 8 dereferenceable(64) ptr @_ZNK6Assimp21BlenderTessellatorP2T23GetActualPointStructureERN3p2t5PointE(ptr noundef nonnull align 8 dereferenceable(8) %this1, ptr noundef nonnull align 8 dereferenceable(40) %call3)
  store ptr %call4, ptr %pointA, align 8
  %6 = load ptr, ptr %Triangle, align 8
  %call5 = call noundef ptr @_ZN3p2t8Triangle8GetPointEi(ptr noundef nonnull align 8 dereferenceable(57) %6, i32 noundef 1)
  %call6 = call noundef nonnull align 8 dereferenceable(64) ptr @_ZNK6Assimp21BlenderTessellatorP2T23GetActualPointStructureERN3p2t5PointE(ptr noundef nonnull align 8 dereferenceable(8) %this1, ptr noundef nonnull align 8 dereferenceable(40) %call5)
  store ptr %call6, ptr %pointB, align 8
  %7 = load ptr, ptr %Triangle, align 8
  %call7 = call noundef ptr @_ZN3p2t8Triangle8GetPointEi(ptr noundef nonnull align 8 dereferenceable(57) %7, i32 noundef 2)
  %call8 = call noundef nonnull align 8 dereferenceable(64) ptr @_ZNK6Assimp21BlenderTessellatorP2T23GetActualPointStructureERN3p2t5PointE(ptr noundef nonnull align 8 dereferenceable(8) %this1, ptr noundef nonnull align 8 dereferenceable(40) %call7)
  store ptr %call8, ptr %pointC, align 8
  %converter = getelementptr inbounds %"class.Assimp::BlenderTessellatorP2T", ptr %this1, i32 0, i32 0
  %8 = load ptr, ptr %converter, align 8
  %9 = load ptr, ptr %pointA, align 8
  %index = getelementptr inbounds %"struct.Assimp::Blender::PointP2T", ptr %9, i32 0, i32 3
  %10 = load i32, ptr %index, align 4
  %11 = load ptr, ptr %pointB, align 8
  %index9 = getelementptr inbounds %"struct.Assimp::Blender::PointP2T", ptr %11, i32 0, i32 3
  %12 = load i32, ptr %index9, align 4
  %13 = load ptr, ptr %pointC, align 8
  %index10 = getelementptr inbounds %"struct.Assimp::Blender::PointP2T", ptr %13, i32 0, i32 3
  %14 = load i32, ptr %index10, align 4
  call void @_ZN6Assimp21BlenderBMeshConverter7AddFaceEiiii(ptr noundef nonnull align 8 dereferenceable(16) %8, i32 noundef %10, i32 noundef %12, i32 noundef %14, i32 noundef 0)
  br label %for.inc

for.inc:                                          ; preds = %for.body
  %15 = load i64, ptr %i, align 8
  %inc = add i64 %15, 1
  store i64 %inc, ptr %i, align 8
  br label %for.cond, !llvm.loop !10

for.end:                                          ; preds = %for.cond
  ret void
}