; Function Attrs: mustprogress uwtable
define hidden void @_ZNK6Assimp21BlenderTessellatorP2T22MakeFacesFromTrianglesERSt6vectorIPN3p2t8TriangleESaIS4_EE(ptr nocapture noundef nonnull readonly align 8 dereferenceable(8) %this, ptr nocapture noundef nonnull readonly align 8 dereferenceable(24) %triangles) local_unnamed_addr #3 align 2 personality ptr @__gxx_personality_v0 {
entry:
  %ref.tmp.i.i19 = alloca ptr, align 8
  %ref.tmp.i.i8 = alloca ptr, align 8
  %ref.tmp.i.i = alloca ptr, align 8
  %_M_finish.i = getelementptr inbounds i8, ptr %triangles, i64 8
  %0 = load ptr, ptr %_M_finish.i, align 8
  %1 = load ptr, ptr %triangles, align 8
  %cmp32.not = icmp eq ptr %0, %1
  br i1 %cmp32.not, label %for.end, label %for.body

for.body:                                         ; preds = %entry, %_ZNK6Assimp21BlenderTessellatorP2T23GetActualPointStructureERN3p2t5PointE.exit27
  %2 = phi ptr [ %18, %_ZNK6Assimp21BlenderTessellatorP2T23GetActualPointStructureERN3p2t5PointE.exit27 ], [ %1, %entry ]
  %i.033 = phi i64 [ %inc, %_ZNK6Assimp21BlenderTessellatorP2T23GetActualPointStructureERN3p2t5PointE.exit27 ], [ 0, %entry ]
  %add.ptr.i = getelementptr inbounds ptr, ptr %2, i64 %i.033
  %3 = load ptr, ptr %add.ptr.i, align 8
  %points_.i = getelementptr inbounds i8, ptr %3, i64 8
  %4 = load ptr, ptr %points_.i, align 8
  %magic.i = getelementptr inbounds i8, ptr %4, i64 40
  %5 = load i32, ptr %magic.i, align 8
  %cmp.not.i = icmp eq i32 %5, -2081580349
  br i1 %cmp.not.i, label %_ZNK6Assimp21BlenderTessellatorP2T23GetActualPointStructureERN3p2t5PointE.exit, label %if.then.i

if.then.i:                                        ; preds = %for.body
  call void @llvm.lifetime.start.p0(i64 8, ptr nonnull %ref.tmp.i.i)
  %exception.i.i = tail call ptr @__cxa_allocate_exception(i64 16) #22
  store ptr @.str, ptr %ref.tmp.i.i, align 8
  invoke void @_ZN17DeadlyImportErrorC2IJPKcRA118_S1_EEEDpOT_(ptr noundef nonnull align 8 dereferenceable(16) %exception.i.i, ptr noundef nonnull align 8 dereferenceable(8) %ref.tmp.i.i, ptr noundef nonnull align 1 dereferenceable(118) @.str.2)
          to label %invoke.cont.i.i unwind label %lpad.i.i

invoke.cont.i.i:                                  ; preds = %if.then.i
  call void @__cxa_throw(ptr nonnull %exception.i.i, ptr nonnull @_ZTI17DeadlyImportError, ptr nonnull @_ZN17DeadlyImportErrorD2Ev) #23
  unreachable

common.resume:                                    ; preds = %lpad.i.i24, %lpad.i.i13, %lpad.i.i
  %exception.i.i23.sink = phi ptr [ %exception.i.i23, %lpad.i.i24 ], [ %exception.i.i12, %lpad.i.i13 ], [ %exception.i.i, %lpad.i.i ]
  %common.resume.op = phi { ptr, i32 } [ %12, %lpad.i.i24 ], [ %9, %lpad.i.i13 ], [ %6, %lpad.i.i ]
  call void @__cxa_free_exception(ptr %exception.i.i23.sink) #22
  resume { ptr, i32 } %common.resume.op

lpad.i.i:                                         ; preds = %if.then.i
  %6 = landingpad { ptr, i32 }
          cleanup
  br label %common.resume

_ZNK6Assimp21BlenderTessellatorP2T23GetActualPointStructureERN3p2t5PointE.exit: ; preds = %for.body
  %arrayidx.i = getelementptr inbounds i8, ptr %3, i64 16
  %7 = load ptr, ptr %arrayidx.i, align 8
  %magic.i9 = getelementptr inbounds i8, ptr %7, i64 40
  %8 = load i32, ptr %magic.i9, align 8
  %cmp.not.i10 = icmp eq i32 %8, -2081580349
  br i1 %cmp.not.i10, label %_ZNK6Assimp21BlenderTessellatorP2T23GetActualPointStructureERN3p2t5PointE.exit16, label %if.then.i11

if.then.i11:                                      ; preds = %_ZNK6Assimp21BlenderTessellatorP2T23GetActualPointStructureERN3p2t5PointE.exit
  call void @llvm.lifetime.start.p0(i64 8, ptr nonnull %ref.tmp.i.i8)
  %exception.i.i12 = tail call ptr @__cxa_allocate_exception(i64 16) #22
  store ptr @.str, ptr %ref.tmp.i.i8, align 8
  invoke void @_ZN17DeadlyImportErrorC2IJPKcRA118_S1_EEEDpOT_(ptr noundef nonnull align 8 dereferenceable(16) %exception.i.i12, ptr noundef nonnull align 8 dereferenceable(8) %ref.tmp.i.i8, ptr noundef nonnull align 1 dereferenceable(118) @.str.2)
          to label %invoke.cont.i.i14 unwind label %lpad.i.i13

invoke.cont.i.i14:                                ; preds = %if.then.i11
  call void @__cxa_throw(ptr nonnull %exception.i.i12, ptr nonnull @_ZTI17DeadlyImportError, ptr nonnull @_ZN17DeadlyImportErrorD2Ev) #23
  unreachable

lpad.i.i13:                                       ; preds = %if.then.i11
  %9 = landingpad { ptr, i32 }
          cleanup
  br label %common.resume

_ZNK6Assimp21BlenderTessellatorP2T23GetActualPointStructureERN3p2t5PointE.exit16: ; preds = %_ZNK6Assimp21BlenderTessellatorP2T23GetActualPointStructureERN3p2t5PointE.exit
  %arrayidx.i18 = getelementptr inbounds i8, ptr %3, i64 24
  %10 = load ptr, ptr %arrayidx.i18, align 8
  %magic.i20 = getelementptr inbounds i8, ptr %10, i64 40
  %11 = load i32, ptr %magic.i20, align 8
  %cmp.not.i21 = icmp eq i32 %11, -2081580349
  br i1 %cmp.not.i21, label %_ZNK6Assimp21BlenderTessellatorP2T23GetActualPointStructureERN3p2t5PointE.exit27, label %if.then.i22

if.then.i22:                                      ; preds = %_ZNK6Assimp21BlenderTessellatorP2T23GetActualPointStructureERN3p2t5PointE.exit16
  call void @llvm.lifetime.start.p0(i64 8, ptr nonnull %ref.tmp.i.i19)
  %exception.i.i23 = tail call ptr @__cxa_allocate_exception(i64 16) #22
  store ptr @.str, ptr %ref.tmp.i.i19, align 8
  invoke void @_ZN17DeadlyImportErrorC2IJPKcRA118_S1_EEEDpOT_(ptr noundef nonnull align 8 dereferenceable(16) %exception.i.i23, ptr noundef nonnull align 8 dereferenceable(8) %ref.tmp.i.i19, ptr noundef nonnull align 1 dereferenceable(118) @.str.2)
          to label %invoke.cont.i.i25 unwind label %lpad.i.i24

invoke.cont.i.i25:                                ; preds = %if.then.i22
  call void @__cxa_throw(ptr nonnull %exception.i.i23, ptr nonnull @_ZTI17DeadlyImportError, ptr nonnull @_ZN17DeadlyImportErrorD2Ev) #23
  unreachable

lpad.i.i24:                                       ; preds = %if.then.i22
  %12 = landingpad { ptr, i32 }
          cleanup
  br label %common.resume

_ZNK6Assimp21BlenderTessellatorP2T23GetActualPointStructureERN3p2t5PointE.exit27: ; preds = %_ZNK6Assimp21BlenderTessellatorP2T23GetActualPointStructureERN3p2t5PointE.exit16
  %13 = load ptr, ptr %this, align 8
  %index = getelementptr inbounds i8, ptr %4, i64 44
  %14 = load i32, ptr %index, align 4
  %index9 = getelementptr inbounds i8, ptr %7, i64 44
  %15 = load i32, ptr %index9, align 4
  %index10 = getelementptr inbounds i8, ptr %10, i64 44
  %16 = load i32, ptr %index10, align 4
  tail call void @_ZN6Assimp21BlenderBMeshConverter7AddFaceEiiii(ptr noundef nonnull align 8 dereferenceable(16) %13, i32 noundef %14, i32 noundef %15, i32 noundef %16, i32 noundef 0)
  %inc = add nuw i64 %i.033, 1
  %17 = load ptr, ptr %_M_finish.i, align 8
  %18 = load ptr, ptr %triangles, align 8
  %sub.ptr.lhs.cast.i = ptrtoint ptr %17 to i64
  %sub.ptr.rhs.cast.i = ptrtoint ptr %18 to i64
  %sub.ptr.sub.i = sub i64 %sub.ptr.lhs.cast.i, %sub.ptr.rhs.cast.i
  %sub.ptr.div.i = ashr exact i64 %sub.ptr.sub.i, 3
  %cmp = icmp ult i64 %inc, %sub.ptr.div.i
  br i1 %cmp, label %for.body, label %for.end, !llvm.loop !14

for.end:                                          ; preds = %_ZNK6Assimp21BlenderTessellatorP2T23GetActualPointStructureERN3p2t5PointE.exit27, %entry
  ret void
}